target datalayout = "e-m:e-p270:32:32-p271:32:32-p272:64:64-i64:64-i128:128-f80:128-n8:16:32:64-S128"
target triple = "x86_64-unknown-linux-gnu"

@_ZL22stbi__g_failure_reason = internal thread_local global ptr null, align 8
@.str.3 = private unnamed_addr constant [3 x i8] c"rb\00", align 1
@.str.4 = private unnamed_addr constant [12 x i8] c"can't fopen\00", align 1

; Function Attrs: mustprogress nounwind uwtable
define internal noundef i32 @_ZL9stbi__errPKc(ptr noundef %str) #0 {
entry:
  %str.addr = alloca ptr, align 8
  store ptr %str, ptr %str.addr, align 8
  %0 = load ptr, ptr %str.addr, align 8
  %1 = call align 8 ptr @llvm.threadlocal.address.p0(ptr align 8 @_ZL22stbi__g_failure_reason)
  store ptr %0, ptr %1, align 8
  ret i32 0
}

; Function Attrs: mustprogress uwtable
define internal noundef ptr @_ZL11stbi__fopenPKcS0_(ptr noundef %filename, ptr noundef %mode) #5 {
entry:
  %filename.addr = alloca ptr, align 8
  %mode.addr = alloca ptr, align 8
  %f = alloca ptr, align 8
  store ptr %filename, ptr %filename.addr, align 8
  store ptr %mode, ptr %mode.addr, align 8
  %0 = load ptr, ptr %filename.addr, align 8
  %1 = load ptr, ptr %mode.addr, align 8
  %call = call noalias ptr @fopen(ptr noundef %0, ptr noundef %1)
  store ptr %call, ptr %f, align 8
  %2 = load ptr, ptr %f, align 8
  ret ptr %2
}

; Function Attrs: mustprogress uwtable
define hidden i32 @assimp_stbi_info(ptr noundef %filename, ptr noundef %x, ptr noundef %y, ptr noundef %comp) #5 {
entry:
  %retval = alloca i32, align 4
  %filename.addr = alloca ptr, align 8
  %x.addr = alloca ptr, align 8
  %y.addr = alloca ptr, align 8
  %comp.addr = alloca ptr, align 8
  %f = alloca ptr, align 8
  %result = alloca i32, align 4
  store ptr %filename, ptr %filename.addr, align 8
  store ptr %x, ptr %x.addr, align 8
  store ptr %y, ptr %y.addr, align 8
  store ptr %comp, ptr %comp.addr, align 8
  %0 = load ptr, ptr %filename.addr, align 8
  %call = call noundef ptr @_ZL11stbi__fopenPKcS0_(ptr noundef %0, ptr noundef @.str.3)
  store ptr %call, ptr %f, align 8
  %1 = load ptr, ptr %f, align 8
  %tobool = icmp ne ptr %1, null
  br i1 %tobool, label %if.end, label %if.then

if.then:                                          ; preds = %entry
  %call1 = call noundef i32 @_ZL9stbi__errPKc(ptr noundef @.str.4)
  store i32 %call1, ptr %retval, align 4
  br label %return

if.end:                                           ; preds = %entry
  %2 = load ptr, ptr %f, align 8
  %3 = load ptr, ptr %x.addr, align 8
  %4 = load ptr, ptr %y.addr, align 8
  %5 = load ptr, ptr %comp.addr, align 8
  %call2 = call i32 @assimp_stbi_info_from_file(ptr noundef %2, ptr noundef %3, ptr noundef %4, ptr noundef %5)
  store i32 %call2, ptr %result, align 4
  %6 = load ptr, ptr %f, align 8
  %call3 = call i32 @fclose(ptr noundef %6)
  %7 = load i32, ptr %result, align 4
  store i32 %7, ptr %retval, align 4
  br label %return

return:                                           ; preds = %if.end, %if.then
  %8 = load i32, ptr %retval, align 4
  ret i32 %8
}