; Function Attrs: mustprogress uwtable
define hidden noundef i32 @assimp_stbi_info(ptr nocapture noundef readonly %filename, ptr noundef %x, ptr noundef %y, ptr noundef %comp) local_unnamed_addr #3 {
entry:
  %call.i = tail call noalias noundef ptr @fopen(ptr noundef %filename, ptr noundef nonnull @.str.3)
  %tobool.not = icmp eq ptr %call.i, null
  br i1 %tobool.not, label %if.then, label %if.end

if.then:                                          ; preds = %entry
  %0 = tail call align 8 ptr @llvm.threadlocal.address.p0(ptr align 8 @_ZL22stbi__g_failure_reason)
  store ptr @.str.4, ptr %0, align 8
  br label %return

if.end:                                           ; preds = %entry
  %call2 = tail call i32 @assimp_stbi_info_from_file(ptr noundef nonnull %call.i, ptr noundef %x, ptr noundef %y, ptr noundef %comp), !range !34
  %call3 = tail call i32 @fclose(ptr noundef nonnull %call.i)
  br label %return

return:                                           ; preds = %if.end, %if.then
  %retval.0 = phi i32 [ %call2, %if.end ], [ 0, %if.then ]
  ret i32 %retval.0
}